target datalayout = "e-m:e-p270:32:32-p271:32:32-p272:64:64-i64:64-i128:128-f80:128-n8:16:32:64-S128"
target triple = "x86_64-pc-linux-gnu"

; Function Attrs: null_pointer_is_valid sspstrong uwtable
define internal zeroext i8 @compute_crc8(ptr noundef %0, i8 noundef zeroext %1, i32 noundef %2) #0 {
  %4 = alloca ptr, align 8
  %5 = alloca i8, align 1
  %6 = alloca i32, align 4
  %7 = alloca i32, align 4
  %8 = alloca i8, align 1
  %9 = alloca i8, align 1
  store ptr %0, ptr %4, align 8
  store i8 %1, ptr %5, align 1
  store i32 %2, ptr %6, align 4
  call void @llvm.lifetime.start.p0(i64 4, ptr %7) #10
  call void @llvm.lifetime.start.p0(i64 1, ptr %8) #10
  store i8 0, ptr %8, align 1
  call void @llvm.lifetime.start.p0(i64 1, ptr %9) #10
  store i32 0, ptr %7, align 4
  br label %10

10:                                               ; preds = %28, %3
  %11 = load i32, ptr %7, align 4
  %12 = load i8, ptr %5, align 1
  %13 = zext i8 %12 to i32
  %14 = icmp slt i32 %11, %13
  br i1 %14, label %15, label %31

15:                                               ; preds = %10
  %16 = load ptr, ptr %4, align 8
  %17 = load i32, ptr %6, align 4
  %18 = add i32 %17, 1
  store i32 %18, ptr %6, align 4
  %19 = call zeroext i8 @tvb_get_uint8(ptr noundef %16, i32 noundef %17)
  store i8 %19, ptr %9, align 1
  %20 = load i8, ptr %8, align 1
  %21 = zext i8 %20 to i32
  %22 = load i8, ptr %9, align 1
  %23 = zext i8 %22 to i32
  %24 = xor i32 %21, %23
  %25 = sext i32 %24 to i64
  %26 = getelementptr [256 x i8], ptr @crc8_table, i64 0, i64 %25
  %27 = load i8, ptr %26, align 1
  store i8 %27, ptr %8, align 1
  br label %28

28:                                               ; preds = %15
  %29 = load i32, ptr %7, align 4
  %30 = add i32 %29, 1
  store i32 %30, ptr %7, align 4
  br label %10, !llvm.loop !11

31:                                               ; preds = %10
  %32 = load i8, ptr %8, align 1
  call void @llvm.lifetime.end.p0(i64 1, ptr %9) #10
  call void @llvm.lifetime.end.p0(i64 1, ptr %8) #10
  call void @llvm.lifetime.end.p0(i64 4, ptr %7) #10
  ret i8 %32
}