; Function Attrs: null_pointer_is_valid sspstrong uwtable
define internal fastcc zeroext i8 @compute_crc8(ptr noundef %0, i8 noundef zeroext %1, i32 noundef %2) unnamed_addr #0 {
  %4 = zext i8 %1 to i32
  %.not = icmp eq i8 %1, 0
  br i1 %.not, label %._crit_edge, label %.lr.ph

.lr.ph:                                           ; preds = %3, %.lr.ph
  %.011 = phi i32 [ %5, %.lr.ph ], [ %2, %3 ]
  %.0710 = phi i8 [ %10, %.lr.ph ], [ 0, %3 ]
  %.089 = phi i32 [ %11, %.lr.ph ], [ 0, %3 ]
  %5 = add i32 %.011, 1
  %6 = tail call zeroext i8 @tvb_get_uint8(ptr noundef %0, i32 noundef %.011)
  %7 = xor i8 %6, %.0710
  %8 = zext i8 %7 to i64
  %9 = getelementptr [256 x i8], ptr @crc8_table, i64 0, i64 %8
  %10 = load i8, ptr %9, align 1
  %11 = add nuw nsw i32 %.089, 1
  %exitcond.not = icmp eq i32 %11, %4
  br i1 %exitcond.not, label %._crit_edge, label %.lr.ph, !llvm.loop !8

._crit_edge:                                      ; preds = %.lr.ph, %3
  %.07.lcssa = phi i8 [ 0, %3 ], [ %10, %.lr.ph ]
  ret i8 %.07.lcssa
}